; Function Attrs: nounwind uwtable
define hidden noundef zeroext i1 @Wayland_SyncWindow(ptr noundef readonly captures(none) %0, ptr noundef readonly captures(none) %1) local_unnamed_addr #0 {
  %3 = getelementptr inbounds nuw i8, ptr %1, i64 392
  %4 = load ptr, ptr %3, align 8
  %5 = getelementptr inbounds nuw i8, ptr %4, i64 372
  %6 = getelementptr inbounds nuw i8, ptr %0, i64 1656
  %7 = getelementptr inbounds nuw i8, ptr %4, i64 368
  br label %.critedge

.critedge:                                        ; preds = %.critedge.backedge, %2
  %8 = load ptr, ptr @WAYLAND_wl_display_roundtrip, align 8
  %9 = load ptr, ptr %6, align 8
  %10 = getelementptr inbounds nuw i8, ptr %9, i64 8
  %11 = load ptr, ptr %10, align 8
  %12 = tail call i32 %8(ptr noundef %11) #15
  %13 = load i32, ptr %7, align 8
  %.not = icmp eq i32 %13, 0
  br i1 %.not, label %14, label %.critedge.backedge

14:                                               ; preds = %.critedge
  %15 = load i32, ptr %5, align 4
  %.not4 = icmp eq i32 %15, 0
  br i1 %.not4, label %16, label %.critedge.backedge

.critedge.backedge:                               ; preds = %14, %.critedge
  br label %.critedge, !llvm.loop !18

16:                                               ; preds = %14
  ret i1 true
}